; Function Attrs: nounwind uwtable
define range(i32 0, 2) i32 @Gia_Min2ManGatherSupp(ptr noundef captures(none) %0) local_unnamed_addr #0 {
  %2 = getelementptr inbounds nuw i8, ptr %0, i64 112
  %3 = load i32, ptr %2, align 8, !tbaa !106
  %4 = add nsw i32 %3, 1
  store i32 %4, ptr %2, align 8, !tbaa !106
  %5 = load ptr, ptr %0, align 8, !tbaa !71
  tail call void @Gia_ManIncrementTravId(ptr noundef %5) #17
  %6 = getelementptr inbounds nuw i8, ptr %0, i64 16
  %7 = getelementptr inbounds nuw i8, ptr %0, i64 32
  %8 = getelementptr inbounds nuw i8, ptr %0, i64 8
  br label %9

9:                                                ; preds = %1, %9
  %10 = phi i1 [ true, %1 ], [ false, %9 ]
  %indvars.iv = phi i64 [ 0, %1 ], [ 1, %9 ]
  %11 = getelementptr inbounds nuw [2 x ptr], ptr %6, i64 0, i64 %indvars.iv
  %12 = load ptr, ptr %11, align 8, !tbaa !18
  %13 = getelementptr inbounds nuw i8, ptr %12, i64 4
  store i32 0, ptr %13, align 4, !tbaa !12
  %14 = getelementptr inbounds nuw [2 x ptr], ptr %7, i64 0, i64 %indvars.iv
  %15 = load ptr, ptr %14, align 8, !tbaa !18
  %16 = getelementptr inbounds nuw i8, ptr %15, i64 4
  store i32 0, ptr %16, align 4, !tbaa !12
  %17 = load ptr, ptr %0, align 8, !tbaa !71
  tail call void @Gia_ManIncrementTravId(ptr noundef %17) #17
  %18 = load ptr, ptr %0, align 8, !tbaa !71
  %19 = getelementptr inbounds nuw [2 x i32], ptr %8, i64 0, i64 %indvars.iv
  %20 = load i32, ptr %19, align 4, !tbaa !47
  %21 = ashr i32 %20, 1
  %22 = load ptr, ptr %11, align 8, !tbaa !18
  %23 = load ptr, ptr %14, align 8, !tbaa !18
  %24 = tail call fastcc i32 @Gia_Min2ManGatherSupp_rec(ptr noundef %18, i32 noundef %21, ptr noundef %22, ptr noundef %23)
  br i1 %10, label %9, label %25, !llvm.loop !107

25:                                               ; preds = %9
  ret i32 %24
}